target datalayout = "e-m:e-p270:32:32-p271:32:32-p272:64:64-i64:64-i128:128-f80:128-n8:16:32:64-S128"
target triple = "x86_64-pc-linux-gnu"

%struct.PauliHamil = type { ptr, ptr, i32, i32 }

@errMsgBuffer = global [1024 x i8] zeroinitializer, align 16

; Function Attrs: nounwind uwtable
define i32 @isValidPauliCode(i32 noundef %0) #0 {
  %2 = alloca i32, align 4
  store i32 %0, ptr %2, align 4, !tbaa !9
  %3 = load i32, ptr %2, align 4, !tbaa !9
  %4 = icmp eq i32 %3, 0
  br i1 %4, label %14, label %5

5:                                                ; preds = %1
  %6 = load i32, ptr %2, align 4, !tbaa !9
  %7 = icmp eq i32 %6, 1
  br i1 %7, label %14, label %8

8:                                                ; preds = %5
  %9 = load i32, ptr %2, align 4, !tbaa !9
  %10 = icmp eq i32 %9, 2
  br i1 %10, label %14, label %11

11:                                               ; preds = %8
  %12 = load i32, ptr %2, align 4, !tbaa !9
  %13 = icmp eq i32 %12, 3
  br label %14

14:                                               ; preds = %11, %8, %5, %1
  %15 = phi i1 [ true, %8 ], [ true, %5 ], [ true, %1 ], [ %13, %11 ]
  %16 = zext i1 %15 to i32
  ret i32 %16
}

; Function Attrs: nounwind uwtable
define void @validateHamilFilePauliCode(i32 noundef %0, ptr noundef byval(%struct.PauliHamil) align 8 %1, ptr noundef %2, ptr noundef %3, ptr noundef %4) #0 {
  %6 = alloca i32, align 4
  %7 = alloca ptr, align 8
  %8 = alloca ptr, align 8
  %9 = alloca ptr, align 8
  store i32 %0, ptr %6, align 4, !tbaa !9
  store ptr %2, ptr %7, align 8, !tbaa !53
  store ptr %3, ptr %8, align 8, !tbaa !4
  store ptr %4, ptr %9, align 8, !tbaa !4
  %10 = load i32, ptr %6, align 4, !tbaa !9
  %11 = call i32 @isValidPauliCode(i32 noundef %10)
  %12 = icmp ne i32 %11, 0
  br i1 %12, label %21, label %13

13:                                               ; preds = %5
  call void @destroyPauliHamil(ptr noundef byval(%struct.PauliHamil) align 8 %1)
  %14 = load ptr, ptr %7, align 8, !tbaa !53
  %15 = call i32 @fclose(ptr noundef %14)
  %16 = load ptr, ptr getelementptr inbounds ([92 x ptr], ptr @errorMessages, i64 0, i64 62), align 16, !tbaa !4
  %17 = load ptr, ptr %8, align 8, !tbaa !4
  %18 = load i32, ptr %6, align 4, !tbaa !9
  %19 = call i32 (ptr, ptr, ...) @sprintf(ptr noundef @errMsgBuffer, ptr noundef %16, ptr noundef %17, i32 noundef %18) #7
  %20 = load ptr, ptr %9, align 8, !tbaa !4
  call void @invalidQuESTInputError(ptr noundef @errMsgBuffer, ptr noundef %20)
  br label %21

21:                                               ; preds = %13, %5
  ret void
}